; Function Attrs: nounwind uwtable
define hidden zeroext i1 @Wayland_HasClipboardData(ptr noundef %0, ptr noundef %1) local_unnamed_addr #0 {
  %3 = getelementptr inbounds nuw i8, ptr %0, i64 1656
  %4 = load ptr, ptr %3, align 8
  %5 = getelementptr inbounds nuw i8, ptr %4, i64 272
  %6 = load ptr, ptr %5, align 8
  %.not = icmp eq ptr %6, null
  br i1 %.not, label %19, label %7

7:                                                ; preds = %2
  %8 = getelementptr inbounds nuw i8, ptr %6, i64 16
  %9 = load ptr, ptr %8, align 8
  %.not12 = icmp eq ptr %9, null
  br i1 %.not12, label %19, label %10

10:                                               ; preds = %7
  %11 = getelementptr inbounds nuw i8, ptr %9, i64 80
  %12 = load ptr, ptr %11, align 8
  %.not13 = icmp eq ptr %12, null
  br i1 %.not13, label %15, label %13

13:                                               ; preds = %10
  %14 = tail call zeroext i1 @SDL_HasInternalClipboardData(ptr noundef nonnull %0, ptr noundef %1) #4
  br label %19

15:                                               ; preds = %10
  %16 = getelementptr inbounds nuw i8, ptr %9, i64 40
  %17 = load ptr, ptr %16, align 8
  %18 = tail call zeroext i1 @Wayland_data_offer_has_mime(ptr noundef %17, ptr noundef %1) #4
  br label %19

19:                                               ; preds = %13, %15, %7, %2
  %.0 = phi i1 [ false, %7 ], [ false, %2 ], [ %14, %13 ], [ %18, %15 ]
  ret i1 %.0
}